target datalayout = "e-m:e-p270:32:32-p271:32:32-p272:64:64-i64:64-i128:128-f80:128-n8:16:32:64-S128"
target triple = "x86_64-pc-linux-gnu"

%struct.H264ChromaContext = type { [4 x ptr], [4 x ptr] }
%struct.H264QpelContext = type { [4 x [16 x ptr]], [4 x [16 x ptr]] }
%struct.RV34DSPContext = type { [4 x [16 x ptr]], [4 x [16 x ptr]], [3 x ptr], [3 x ptr], [2 x [2 x ptr]], ptr, ptr, ptr, ptr, [2 x ptr], [2 x ptr], [2 x ptr] }

; Function Attrs: cold nounwind optsize uwtable
define void @ff_rv30dsp_init(ptr noundef %0) #0 {
  %2 = alloca ptr, align 8
  %3 = alloca %struct.H264ChromaContext, align 8
  %4 = alloca %struct.H264QpelContext, align 8
  store ptr %0, ptr %2, align 8, !tbaa !4
  call void @llvm.lifetime.start.p0(i64 64, ptr %3) #4
  call void @llvm.lifetime.start.p0(i64 1024, ptr %4) #4
  %5 = load ptr, ptr %2, align 8, !tbaa !4
  call void @ff_rv34dsp_init(ptr noundef %5)
  call void @ff_h264chroma_init(ptr noundef %3, i32 noundef 8)
  call void @ff_h264qpel_init(ptr noundef %4, i32 noundef 8)
  %6 = getelementptr inbounds nuw %struct.H264QpelContext, ptr %4, i32 0, i32 0
  %7 = getelementptr inbounds [4 x [16 x ptr]], ptr %6, i64 0, i64 0
  %8 = getelementptr inbounds [16 x ptr], ptr %7, i64 0, i64 0
  %9 = load ptr, ptr %8, align 8, !tbaa !9
  %10 = load ptr, ptr %2, align 8, !tbaa !4
  %11 = getelementptr inbounds nuw %struct.RV34DSPContext, ptr %10, i32 0, i32 0
  %12 = getelementptr inbounds [4 x [16 x ptr]], ptr %11, i64 0, i64 0
  %13 = getelementptr inbounds [16 x ptr], ptr %12, i64 0, i64 0
  store ptr %9, ptr %13, align 8, !tbaa !9
  %14 = load ptr, ptr %2, align 8, !tbaa !4
  %15 = getelementptr inbounds nuw %struct.RV34DSPContext, ptr %14, i32 0, i32 0
  %16 = getelementptr inbounds [4 x [16 x ptr]], ptr %15, i64 0, i64 0
  %17 = getelementptr inbounds [16 x ptr], ptr %16, i64 0, i64 1
  store ptr @put_rv30_tpel16_mc10_c, ptr %17, align 8, !tbaa !9
  %18 = load ptr, ptr %2, align 8, !tbaa !4
  %19 = getelementptr inbounds nuw %struct.RV34DSPContext, ptr %18, i32 0, i32 0
  %20 = getelementptr inbounds [4 x [16 x ptr]], ptr %19, i64 0, i64 0
  %21 = getelementptr inbounds [16 x ptr], ptr %20, i64 0, i64 2
  store ptr @put_rv30_tpel16_mc20_c, ptr %21, align 8, !tbaa !9
  %22 = load ptr, ptr %2, align 8, !tbaa !4
  %23 = getelementptr inbounds nuw %struct.RV34DSPContext, ptr %22, i32 0, i32 0
  %24 = getelementptr inbounds [4 x [16 x ptr]], ptr %23, i64 0, i64 0
  %25 = getelementptr inbounds [16 x ptr], ptr %24, i64 0, i64 4
  store ptr @put_rv30_tpel16_mc01_c, ptr %25, align 8, !tbaa !9
  %26 = load ptr, ptr %2, align 8, !tbaa !4
  %27 = getelementptr inbounds nuw %struct.RV34DSPContext, ptr %26, i32 0, i32 0
  %28 = getelementptr inbounds [4 x [16 x ptr]], ptr %27, i64 0, i64 0
  %29 = getelementptr inbounds [16 x ptr], ptr %28, i64 0, i64 5
  store ptr @put_rv30_tpel16_mc11_c, ptr %29, align 8, !tbaa !9
  %30 = load ptr, ptr %2, align 8, !tbaa !4
  %31 = getelementptr inbounds nuw %struct.RV34DSPContext, ptr %30, i32 0, i32 0
  %32 = getelementptr inbounds [4 x [16 x ptr]], ptr %31, i64 0, i64 0
  %33 = getelementptr inbounds [16 x ptr], ptr %32, i64 0, i64 6
  store ptr @put_rv30_tpel16_mc21_c, ptr %33, align 8, !tbaa !9
  %34 = load ptr, ptr %2, align 8, !tbaa !4
  %35 = getelementptr inbounds nuw %struct.RV34DSPContext, ptr %34, i32 0, i32 0
  %36 = getelementptr inbounds [4 x [16 x ptr]], ptr %35, i64 0, i64 0
  %37 = getelementptr inbounds [16 x ptr], ptr %36, i64 0, i64 8
  store ptr @put_rv30_tpel16_mc02_c, ptr %37, align 8, !tbaa !9
  %38 = load ptr, ptr %2, align 8, !tbaa !4
  %39 = getelementptr inbounds nuw %struct.RV34DSPContext, ptr %38, i32 0, i32 0
  %40 = getelementptr inbounds [4 x [16 x ptr]], ptr %39, i64 0, i64 0
  %41 = getelementptr inbounds [16 x ptr], ptr %40, i64 0, i64 9
  store ptr @put_rv30_tpel16_mc12_c, ptr %41, align 8, !tbaa !9
  %42 = load ptr, ptr %2, align 8, !tbaa !4
  %43 = getelementptr inbounds nuw %struct.RV34DSPContext, ptr %42, i32 0, i32 0
  %44 = getelementptr inbounds [4 x [16 x ptr]], ptr %43, i64 0, i64 0
  %45 = getelementptr inbounds [16 x ptr], ptr %44, i64 0, i64 10
  store ptr @put_rv30_tpel16_mc22_c, ptr %45, align 8, !tbaa !9
  %46 = getelementptr inbounds nuw %struct.H264QpelContext, ptr %4, i32 0, i32 1
  %47 = getelementptr inbounds [4 x [16 x ptr]], ptr %46, i64 0, i64 0
  %48 = getelementptr inbounds [16 x ptr], ptr %47, i64 0, i64 0
  %49 = load ptr, ptr %48, align 8, !tbaa !9
  %50 = load ptr, ptr %2, align 8, !tbaa !4
  %51 = getelementptr inbounds nuw %struct.RV34DSPContext, ptr %50, i32 0, i32 1
  %52 = getelementptr inbounds [4 x [16 x ptr]], ptr %51, i64 0, i64 0
  %53 = getelementptr inbounds [16 x ptr], ptr %52, i64 0, i64 0
  store ptr %49, ptr %53, align 8, !tbaa !9
  %54 = load ptr, ptr %2, align 8, !tbaa !4
  %55 = getelementptr inbounds nuw %struct.RV34DSPContext, ptr %54, i32 0, i32 1
  %56 = getelementptr inbounds [4 x [16 x ptr]], ptr %55, i64 0, i64 0
  %57 = getelementptr inbounds [16 x ptr], ptr %56, i64 0, i64 1
  store ptr @avg_rv30_tpel16_mc10_c, ptr %57, align 8, !tbaa !9
  %58 = load ptr, ptr %2, align 8, !tbaa !4
  %59 = getelementptr inbounds nuw %struct.RV34DSPContext, ptr %58, i32 0, i32 1
  %60 = getelementptr inbounds [4 x [16 x ptr]], ptr %59, i64 0, i64 0
  %61 = getelementptr inbounds [16 x ptr], ptr %60, i64 0, i64 2
  store ptr @avg_rv30_tpel16_mc20_c, ptr %61, align 8, !tbaa !9
  %62 = load ptr, ptr %2, align 8, !tbaa !4
  %63 = getelementptr inbounds nuw %struct.RV34DSPContext, ptr %62, i32 0, i32 1
  %64 = getelementptr inbounds [4 x [16 x ptr]], ptr %63, i64 0, i64 0
  %65 = getelementptr inbounds [16 x ptr], ptr %64, i64 0, i64 4
  store ptr @avg_rv30_tpel16_mc01_c, ptr %65, align 8, !tbaa !9
  %66 = load ptr, ptr %2, align 8, !tbaa !4
  %67 = getelementptr inbounds nuw %struct.RV34DSPContext, ptr %66, i32 0, i32 1
  %68 = getelementptr inbounds [4 x [16 x ptr]], ptr %67, i64 0, i64 0
  %69 = getelementptr inbounds [16 x ptr], ptr %68, i64 0, i64 5
  store ptr @avg_rv30_tpel16_mc11_c, ptr %69, align 8, !tbaa !9
  %70 = load ptr, ptr %2, align 8, !tbaa !4
  %71 = getelementptr inbounds nuw %struct.RV34DSPContext, ptr %70, i32 0, i32 1
  %72 = getelementptr inbounds [4 x [16 x ptr]], ptr %71, i64 0, i64 0
  %73 = getelementptr inbounds [16 x ptr], ptr %72, i64 0, i64 6
  store ptr @avg_rv30_tpel16_mc21_c, ptr %73, align 8, !tbaa !9
  %74 = load ptr, ptr %2, align 8, !tbaa !4
  %75 = getelementptr inbounds nuw %struct.RV34DSPContext, ptr %74, i32 0, i32 1
  %76 = getelementptr inbounds [4 x [16 x ptr]], ptr %75, i64 0, i64 0
  %77 = getelementptr inbounds [16 x ptr], ptr %76, i64 0, i64 8
  store ptr @avg_rv30_tpel16_mc02_c, ptr %77, align 8, !tbaa !9
  %78 = load ptr, ptr %2, align 8, !tbaa !4
  %79 = getelementptr inbounds nuw %struct.RV34DSPContext, ptr %78, i32 0, i32 1
  %80 = getelementptr inbounds [4 x [16 x ptr]], ptr %79, i64 0, i64 0
  %81 = getelementptr inbounds [16 x ptr], ptr %80, i64 0, i64 9
  store ptr @avg_rv30_tpel16_mc12_c, ptr %81, align 8, !tbaa !9
  %82 = load ptr, ptr %2, align 8, !tbaa !4
  %83 = getelementptr inbounds nuw %struct.RV34DSPContext, ptr %82, i32 0, i32 1
  %84 = getelementptr inbounds [4 x [16 x ptr]], ptr %83, i64 0, i64 0
  %85 = getelementptr inbounds [16 x ptr], ptr %84, i64 0, i64 10
  store ptr @avg_rv30_tpel16_mc22_c, ptr %85, align 8, !tbaa !9
  %86 = getelementptr inbounds nuw %struct.H264QpelContext, ptr %4, i32 0, i32 0
  %87 = getelementptr inbounds [4 x [16 x ptr]], ptr %86, i64 0, i64 1
  %88 = getelementptr inbounds [16 x ptr], ptr %87, i64 0, i64 0
  %89 = load ptr, ptr %88, align 8, !tbaa !9
  %90 = load ptr, ptr %2, align 8, !tbaa !4
  %91 = getelementptr inbounds nuw %struct.RV34DSPContext, ptr %90, i32 0, i32 0
  %92 = getelementptr inbounds [4 x [16 x ptr]], ptr %91, i64 0, i64 1
  %93 = getelementptr inbounds [16 x ptr], ptr %92, i64 0, i64 0
  store ptr %89, ptr %93, align 8, !tbaa !9
  %94 = load ptr, ptr %2, align 8, !tbaa !4
  %95 = getelementptr inbounds nuw %struct.RV34DSPContext, ptr %94, i32 0, i32 0
  %96 = getelementptr inbounds [4 x [16 x ptr]], ptr %95, i64 0, i64 1
  %97 = getelementptr inbounds [16 x ptr], ptr %96, i64 0, i64 1
  store ptr @put_rv30_tpel8_mc10_c, ptr %97, align 8, !tbaa !9
  %98 = load ptr, ptr %2, align 8, !tbaa !4
  %99 = getelementptr inbounds nuw %struct.RV34DSPContext, ptr %98, i32 0, i32 0
  %100 = getelementptr inbounds [4 x [16 x ptr]], ptr %99, i64 0, i64 1
  %101 = getelementptr inbounds [16 x ptr], ptr %100, i64 0, i64 2
  store ptr @put_rv30_tpel8_mc20_c, ptr %101, align 8, !tbaa !9
  %102 = load ptr, ptr %2, align 8, !tbaa !4
  %103 = getelementptr inbounds nuw %struct.RV34DSPContext, ptr %102, i32 0, i32 0
  %104 = getelementptr inbounds [4 x [16 x ptr]], ptr %103, i64 0, i64 1
  %105 = getelementptr inbounds [16 x ptr], ptr %104, i64 0, i64 4
  store ptr @put_rv30_tpel8_mc01_c, ptr %105, align 8, !tbaa !9
  %106 = load ptr, ptr %2, align 8, !tbaa !4
  %107 = getelementptr inbounds nuw %struct.RV34DSPContext, ptr %106, i32 0, i32 0
  %108 = getelementptr inbounds [4 x [16 x ptr]], ptr %107, i64 0, i64 1
  %109 = getelementptr inbounds [16 x ptr], ptr %108, i64 0, i64 5
  store ptr @put_rv30_tpel8_mc11_c, ptr %109, align 8, !tbaa !9
  %110 = load ptr, ptr %2, align 8, !tbaa !4
  %111 = getelementptr inbounds nuw %struct.RV34DSPContext, ptr %110, i32 0, i32 0
  %112 = getelementptr inbounds [4 x [16 x ptr]], ptr %111, i64 0, i64 1
  %113 = getelementptr inbounds [16 x ptr], ptr %112, i64 0, i64 6
  store ptr @put_rv30_tpel8_mc21_c, ptr %113, align 8, !tbaa !9
  %114 = load ptr, ptr %2, align 8, !tbaa !4
  %115 = getelementptr inbounds nuw %struct.RV34DSPContext, ptr %114, i32 0, i32 0
  %116 = getelementptr inbounds [4 x [16 x ptr]], ptr %115, i64 0, i64 1
  %117 = getelementptr inbounds [16 x ptr], ptr %116, i64 0, i64 8
  store ptr @put_rv30_tpel8_mc02_c, ptr %117, align 8, !tbaa !9
  %118 = load ptr, ptr %2, align 8, !tbaa !4
  %119 = getelementptr inbounds nuw %struct.RV34DSPContext, ptr %118, i32 0, i32 0
  %120 = getelementptr inbounds [4 x [16 x ptr]], ptr %119, i64 0, i64 1
  %121 = getelementptr inbounds [16 x ptr], ptr %120, i64 0, i64 9
  store ptr @put_rv30_tpel8_mc12_c, ptr %121, align 8, !tbaa !9
  %122 = load ptr, ptr %2, align 8, !tbaa !4
  %123 = getelementptr inbounds nuw %struct.RV34DSPContext, ptr %122, i32 0, i32 0
  %124 = getelementptr inbounds [4 x [16 x ptr]], ptr %123, i64 0, i64 1
  %125 = getelementptr inbounds [16 x ptr], ptr %124, i64 0, i64 10
  store ptr @put_rv30_tpel8_mc22_c, ptr %125, align 8, !tbaa !9
  %126 = getelementptr inbounds nuw %struct.H264QpelContext, ptr %4, i32 0, i32 1
  %127 = getelementptr inbounds [4 x [16 x ptr]], ptr %126, i64 0, i64 1
  %128 = getelementptr inbounds [16 x ptr], ptr %127, i64 0, i64 0
  %129 = load ptr, ptr %128, align 8, !tbaa !9
  %130 = load ptr, ptr %2, align 8, !tbaa !4
  %131 = getelementptr inbounds nuw %struct.RV34DSPContext, ptr %130, i32 0, i32 1
  %132 = getelementptr inbounds [4 x [16 x ptr]], ptr %131, i64 0, i64 1
  %133 = getelementptr inbounds [16 x ptr], ptr %132, i64 0, i64 0
  store ptr %129, ptr %133, align 8, !tbaa !9
  %134 = load ptr, ptr %2, align 8, !tbaa !4
  %135 = getelementptr inbounds nuw %struct.RV34DSPContext, ptr %134, i32 0, i32 1
  %136 = getelementptr inbounds [4 x [16 x ptr]], ptr %135, i64 0, i64 1
  %137 = getelementptr inbounds [16 x ptr], ptr %136, i64 0, i64 1
  store ptr @avg_rv30_tpel8_mc10_c, ptr %137, align 8, !tbaa !9
  %138 = load ptr, ptr %2, align 8, !tbaa !4
  %139 = getelementptr inbounds nuw %struct.RV34DSPContext, ptr %138, i32 0, i32 1
  %140 = getelementptr inbounds [4 x [16 x ptr]], ptr %139, i64 0, i64 1
  %141 = getelementptr inbounds [16 x ptr], ptr %140, i64 0, i64 2
  store ptr @avg_rv30_tpel8_mc20_c, ptr %141, align 8, !tbaa !9
  %142 = load ptr, ptr %2, align 8, !tbaa !4
  %143 = getelementptr inbounds nuw %struct.RV34DSPContext, ptr %142, i32 0, i32 1
  %144 = getelementptr inbounds [4 x [16 x ptr]], ptr %143, i64 0, i64 1
  %145 = getelementptr inbounds [16 x ptr], ptr %144, i64 0, i64 4
  store ptr @avg_rv30_tpel8_mc01_c, ptr %145, align 8, !tbaa !9
  %146 = load ptr, ptr %2, align 8, !tbaa !4
  %147 = getelementptr inbounds nuw %struct.RV34DSPContext, ptr %146, i32 0, i32 1
  %148 = getelementptr inbounds [4 x [16 x ptr]], ptr %147, i64 0, i64 1
  %149 = getelementptr inbounds [16 x ptr], ptr %148, i64 0, i64 5
  store ptr @avg_rv30_tpel8_mc11_c, ptr %149, align 8, !tbaa !9
  %150 = load ptr, ptr %2, align 8, !tbaa !4
  %151 = getelementptr inbounds nuw %struct.RV34DSPContext, ptr %150, i32 0, i32 1
  %152 = getelementptr inbounds [4 x [16 x ptr]], ptr %151, i64 0, i64 1
  %153 = getelementptr inbounds [16 x ptr], ptr %152, i64 0, i64 6
  store ptr @avg_rv30_tpel8_mc21_c, ptr %153, align 8, !tbaa !9
  %154 = load ptr, ptr %2, align 8, !tbaa !4
  %155 = getelementptr inbounds nuw %struct.RV34DSPContext, ptr %154, i32 0, i32 1
  %156 = getelementptr inbounds [4 x [16 x ptr]], ptr %155, i64 0, i64 1
  %157 = getelementptr inbounds [16 x ptr], ptr %156, i64 0, i64 8
  store ptr @avg_rv30_tpel8_mc02_c, ptr %157, align 8, !tbaa !9
  %158 = load ptr, ptr %2, align 8, !tbaa !4
  %159 = getelementptr inbounds nuw %struct.RV34DSPContext, ptr %158, i32 0, i32 1
  %160 = getelementptr inbounds [4 x [16 x ptr]], ptr %159, i64 0, i64 1
  %161 = getelementptr inbounds [16 x ptr], ptr %160, i64 0, i64 9
  store ptr @avg_rv30_tpel8_mc12_c, ptr %161, align 8, !tbaa !9
  %162 = load ptr, ptr %2, align 8, !tbaa !4
  %163 = getelementptr inbounds nuw %struct.RV34DSPContext, ptr %162, i32 0, i32 1
  %164 = getelementptr inbounds [4 x [16 x ptr]], ptr %163, i64 0, i64 1
  %165 = getelementptr inbounds [16 x ptr], ptr %164, i64 0, i64 10
  store ptr @avg_rv30_tpel8_mc22_c, ptr %165, align 8, !tbaa !9
  %166 = getelementptr inbounds nuw %struct.H264ChromaContext, ptr %3, i32 0, i32 0
  %167 = getelementptr inbounds [4 x ptr], ptr %166, i64 0, i64 0
  %168 = load ptr, ptr %167, align 8, !tbaa !9
  %169 = load ptr, ptr %2, align 8, !tbaa !4
  %170 = getelementptr inbounds nuw %struct.RV34DSPContext, ptr %169, i32 0, i32 2
  %171 = getelementptr inbounds [3 x ptr], ptr %170, i64 0, i64 0
  store ptr %168, ptr %171, align 8, !tbaa !9
  %172 = getelementptr inbounds nuw %struct.H264ChromaContext, ptr %3, i32 0, i32 0
  %173 = getelementptr inbounds [4 x ptr], ptr %172, i64 0, i64 1
  %174 = load ptr, ptr %173, align 8, !tbaa !9
  %175 = load ptr, ptr %2, align 8, !tbaa !4
  %176 = getelementptr inbounds nuw %struct.RV34DSPContext, ptr %175, i32 0, i32 2
  %177 = getelementptr inbounds [3 x ptr], ptr %176, i64 0, i64 1
  store ptr %174, ptr %177, align 8, !tbaa !9
  %178 = getelementptr inbounds nuw %struct.H264ChromaContext, ptr %3, i32 0, i32 1
  %179 = getelementptr inbounds [4 x ptr], ptr %178, i64 0, i64 0
  %180 = load ptr, ptr %179, align 8, !tbaa !9
  %181 = load ptr, ptr %2, align 8, !tbaa !4
  %182 = getelementptr inbounds nuw %struct.RV34DSPContext, ptr %181, i32 0, i32 3
  %183 = getelementptr inbounds [3 x ptr], ptr %182, i64 0, i64 0
  store ptr %180, ptr %183, align 8, !tbaa !9
  %184 = getelementptr inbounds nuw %struct.H264ChromaContext, ptr %3, i32 0, i32 1
  %185 = getelementptr inbounds [4 x ptr], ptr %184, i64 0, i64 1
  %186 = load ptr, ptr %185, align 8, !tbaa !9
  %187 = load ptr, ptr %2, align 8, !tbaa !4
  %188 = getelementptr inbounds nuw %struct.RV34DSPContext, ptr %187, i32 0, i32 3
  %189 = getelementptr inbounds [3 x ptr], ptr %188, i64 0, i64 1
  store ptr %186, ptr %189, align 8, !tbaa !9
  call void @llvm.lifetime.end.p0(i64 1024, ptr %4) #4
  call void @llvm.lifetime.end.p0(i64 64, ptr %3) #4
  ret void
}