; Function Attrs: cold nounwind optsize uwtable
define void @ff_rv30dsp_init(ptr noundef %0) local_unnamed_addr #0 {
  %2 = alloca %struct.H264ChromaContext, align 8
  %3 = alloca %struct.H264QpelContext, align 8
  call void @llvm.lifetime.start.p0(i64 64, ptr nonnull %2) #4
  call void @llvm.lifetime.start.p0(i64 1024, ptr nonnull %3) #4
  tail call void @ff_rv34dsp_init(ptr noundef %0) #4
  call void @ff_h264chroma_init(ptr noundef nonnull %2, i32 noundef 8) #4
  call void @ff_h264qpel_init(ptr noundef nonnull %3, i32 noundef 8) #4
  %4 = load ptr, ptr %3, align 8, !tbaa !4
  store ptr %4, ptr %0, align 8, !tbaa !4
  %5 = getelementptr inbounds nuw i8, ptr %0, i64 8
  store ptr @put_rv30_tpel16_mc10_c, ptr %5, align 8, !tbaa !4
  %6 = getelementptr inbounds nuw i8, ptr %0, i64 16
  store ptr @put_rv30_tpel16_mc20_c, ptr %6, align 8, !tbaa !4
  %7 = getelementptr inbounds nuw i8, ptr %0, i64 32
  store ptr @put_rv30_tpel16_mc01_c, ptr %7, align 8, !tbaa !4
  %8 = getelementptr inbounds nuw i8, ptr %0, i64 40
  store ptr @put_rv30_tpel16_mc11_c, ptr %8, align 8, !tbaa !4
  %9 = getelementptr inbounds nuw i8, ptr %0, i64 48
  store ptr @put_rv30_tpel16_mc21_c, ptr %9, align 8, !tbaa !4
  %10 = getelementptr inbounds nuw i8, ptr %0, i64 64
  store ptr @put_rv30_tpel16_mc02_c, ptr %10, align 8, !tbaa !4
  %11 = getelementptr inbounds nuw i8, ptr %0, i64 72
  store ptr @put_rv30_tpel16_mc12_c, ptr %11, align 8, !tbaa !4
  %12 = getelementptr inbounds nuw i8, ptr %0, i64 80
  store ptr @put_rv30_tpel16_mc22_c, ptr %12, align 8, !tbaa !4
  %13 = getelementptr inbounds nuw i8, ptr %3, i64 512
  %14 = load ptr, ptr %13, align 8, !tbaa !4
  %15 = getelementptr inbounds nuw i8, ptr %0, i64 512
  store ptr %14, ptr %15, align 8, !tbaa !4
  %16 = getelementptr inbounds nuw i8, ptr %0, i64 520
  store ptr @avg_rv30_tpel16_mc10_c, ptr %16, align 8, !tbaa !4
  %17 = getelementptr inbounds nuw i8, ptr %0, i64 528
  store ptr @avg_rv30_tpel16_mc20_c, ptr %17, align 8, !tbaa !4
  %18 = getelementptr inbounds nuw i8, ptr %0, i64 544
  store ptr @avg_rv30_tpel16_mc01_c, ptr %18, align 8, !tbaa !4
  %19 = getelementptr inbounds nuw i8, ptr %0, i64 552
  store ptr @avg_rv30_tpel16_mc11_c, ptr %19, align 8, !tbaa !4
  %20 = getelementptr inbounds nuw i8, ptr %0, i64 560
  store ptr @avg_rv30_tpel16_mc21_c, ptr %20, align 8, !tbaa !4
  %21 = getelementptr inbounds nuw i8, ptr %0, i64 576
  store ptr @avg_rv30_tpel16_mc02_c, ptr %21, align 8, !tbaa !4
  %22 = getelementptr inbounds nuw i8, ptr %0, i64 584
  store ptr @avg_rv30_tpel16_mc12_c, ptr %22, align 8, !tbaa !4
  %23 = getelementptr inbounds nuw i8, ptr %0, i64 592
  store ptr @avg_rv30_tpel16_mc22_c, ptr %23, align 8, !tbaa !4
  %24 = getelementptr inbounds nuw i8, ptr %3, i64 128
  %25 = load ptr, ptr %24, align 8, !tbaa !4
  %26 = getelementptr inbounds nuw i8, ptr %0, i64 128
  store ptr %25, ptr %26, align 8, !tbaa !4
  %27 = getelementptr inbounds nuw i8, ptr %0, i64 136
  store ptr @put_rv30_tpel8_mc10_c, ptr %27, align 8, !tbaa !4
  %28 = getelementptr inbounds nuw i8, ptr %0, i64 144
  store ptr @put_rv30_tpel8_mc20_c, ptr %28, align 8, !tbaa !4
  %29 = getelementptr inbounds nuw i8, ptr %0, i64 160
  store ptr @put_rv30_tpel8_mc01_c, ptr %29, align 8, !tbaa !4
  %30 = getelementptr inbounds nuw i8, ptr %0, i64 168
  store ptr @put_rv30_tpel8_mc11_c, ptr %30, align 8, !tbaa !4
  %31 = getelementptr inbounds nuw i8, ptr %0, i64 176
  store ptr @put_rv30_tpel8_mc21_c, ptr %31, align 8, !tbaa !4
  %32 = getelementptr inbounds nuw i8, ptr %0, i64 192
  store ptr @put_rv30_tpel8_mc02_c, ptr %32, align 8, !tbaa !4
  %33 = getelementptr inbounds nuw i8, ptr %0, i64 200
  store ptr @put_rv30_tpel8_mc12_c, ptr %33, align 8, !tbaa !4
  %34 = getelementptr inbounds nuw i8, ptr %0, i64 208
  store ptr @put_rv30_tpel8_mc22_c, ptr %34, align 8, !tbaa !4
  %35 = getelementptr inbounds nuw i8, ptr %3, i64 640
  %36 = load ptr, ptr %35, align 8, !tbaa !4
  %37 = getelementptr inbounds nuw i8, ptr %0, i64 640
  store ptr %36, ptr %37, align 8, !tbaa !4
  %38 = getelementptr inbounds nuw i8, ptr %0, i64 648
  store ptr @avg_rv30_tpel8_mc10_c, ptr %38, align 8, !tbaa !4
  %39 = getelementptr inbounds nuw i8, ptr %0, i64 656
  store ptr @avg_rv30_tpel8_mc20_c, ptr %39, align 8, !tbaa !4
  %40 = getelementptr inbounds nuw i8, ptr %0, i64 672
  store ptr @avg_rv30_tpel8_mc01_c, ptr %40, align 8, !tbaa !4
  %41 = getelementptr inbounds nuw i8, ptr %0, i64 680
  store ptr @avg_rv30_tpel8_mc11_c, ptr %41, align 8, !tbaa !4
  %42 = getelementptr inbounds nuw i8, ptr %0, i64 688
  store ptr @avg_rv30_tpel8_mc21_c, ptr %42, align 8, !tbaa !4
  %43 = getelementptr inbounds nuw i8, ptr %0, i64 704
  store ptr @avg_rv30_tpel8_mc02_c, ptr %43, align 8, !tbaa !4
  %44 = getelementptr inbounds nuw i8, ptr %0, i64 712
  store ptr @avg_rv30_tpel8_mc12_c, ptr %44, align 8, !tbaa !4
  %45 = getelementptr inbounds nuw i8, ptr %0, i64 720
  store ptr @avg_rv30_tpel8_mc22_c, ptr %45, align 8, !tbaa !4
  %46 = load ptr, ptr %2, align 8, !tbaa !4
  %47 = getelementptr inbounds nuw i8, ptr %0, i64 1024
  store ptr %46, ptr %47, align 8, !tbaa !4
  %48 = getelementptr inbounds nuw i8, ptr %2, i64 8
  %49 = load ptr, ptr %48, align 8, !tbaa !4
  %50 = getelementptr inbounds nuw i8, ptr %0, i64 1032
  store ptr %49, ptr %50, align 8, !tbaa !4
  %51 = getelementptr inbounds nuw i8, ptr %2, i64 32
  %52 = load ptr, ptr %51, align 8, !tbaa !4
  %53 = getelementptr inbounds nuw i8, ptr %0, i64 1048
  store ptr %52, ptr %53, align 8, !tbaa !4
  %54 = getelementptr inbounds nuw i8, ptr %2, i64 40
  %55 = load ptr, ptr %54, align 8, !tbaa !4
  %56 = getelementptr inbounds nuw i8, ptr %0, i64 1056
  store ptr %55, ptr %56, align 8, !tbaa !4
  call void @llvm.lifetime.end.p0(i64 1024, ptr nonnull %3) #4
  call void @llvm.lifetime.end.p0(i64 64, ptr nonnull %2) #4
  ret void
}